; Function Attrs: mustprogress nounwind uwtable
define dso_local void @_ZN4node7UDPWrap7OnAllocEP11uv_handle_smP8uv_buf_t(ptr noundef %handle, i64 noundef %suggested_size, ptr nocapture noundef writeonly %buf) #3 align 2 {
entry:
  %0 = ptrtoint ptr %handle to i64
  %sub.i.i = add i64 %0, -120
  %1 = inttoptr i64 %sub.i.i to ptr
  %listener_.i = getelementptr inbounds i8, ptr %1, i64 96
  %2 = load ptr, ptr %listener_.i, align 8
  %cmp.not.i = icmp eq ptr %2, null
  br i1 %cmp.not.i, label %do.body4.i, label %_ZNK4node11UDPWrapBase8listenerEv.exit

do.body4.i:                                       ; preds = %entry
  tail call void @_ZN4node6AssertERKNS_13AssertionInfoE(ptr noundef nonnull align 8 dereferenceable(24) @_ZZNK4node11UDPWrapBase8listenerEvE4args) #19
  tail call void @abort() #20
  unreachable

_ZNK4node11UDPWrapBase8listenerEv.exit:           ; preds = %entry
  %vtable = load ptr, ptr %2, align 8
  %vfn = getelementptr inbounds i8, ptr %vtable, i64 16
  %3 = load ptr, ptr %vfn, align 8
  %call4 = tail call { ptr, i64 } %3(ptr noundef nonnull align 8 dereferenceable(16) %2, i64 noundef %suggested_size) #19
  %4 = extractvalue { ptr, i64 } %call4, 0
  %5 = extractvalue { ptr, i64 } %call4, 1
  store ptr %4, ptr %buf, align 8
  %ref.tmp2.sroa.2.0..sroa_idx = getelementptr inbounds i8, ptr %buf, i64 8
  store i64 %5, ptr %ref.tmp2.sroa.2.0..sroa_idx, align 8
  ret void
}